target datalayout = "e-m:e-p270:32:32-p271:32:32-p272:64:64-i64:64-i128:128-f80:128-n8:16:32:64-S128"
target triple = "x86_64-pc-linux-gnu"

%struct.mbedtls_mpi = type { ptr, i16, i16 }

; Function Attrs: nounwind uwtable
define hidden i32 @mbedtls_rsa_validate_params(ptr noundef %0, ptr noundef %1, ptr noundef %2, ptr noundef %3, ptr noundef %4, ptr noundef %5, ptr noundef %6) #0 {
  %8 = alloca ptr, align 8
  %9 = alloca ptr, align 8
  %10 = alloca ptr, align 8
  %11 = alloca ptr, align 8
  %12 = alloca ptr, align 8
  %13 = alloca ptr, align 8
  %14 = alloca ptr, align 8
  %15 = alloca i32, align 4
  %16 = alloca %struct.mbedtls_mpi, align 8
  %17 = alloca %struct.mbedtls_mpi, align 8
  store ptr %0, ptr %8, align 8, !tbaa !3
  store ptr %1, ptr %9, align 8, !tbaa !3
  store ptr %2, ptr %10, align 8, !tbaa !3
  store ptr %3, ptr %11, align 8, !tbaa !3
  store ptr %4, ptr %12, align 8, !tbaa !3
  store ptr %5, ptr %13, align 8, !tbaa !21
  store ptr %6, ptr %14, align 8, !tbaa !21
  call void @llvm.lifetime.start.p0(i64 4, ptr %15) #4
  store i32 0, ptr %15, align 4, !tbaa !8
  call void @llvm.lifetime.start.p0(i64 16, ptr %16) #4
  call void @llvm.lifetime.start.p0(i64 16, ptr %17) #4
  call void @mbedtls_mpi_init(ptr noundef %16)
  call void @mbedtls_mpi_init(ptr noundef %17)
  %18 = load ptr, ptr %13, align 8, !tbaa !21
  %19 = icmp ne ptr %18, null
  br i1 %19, label %20, label %30

20:                                               ; preds = %7
  %21 = load ptr, ptr %9, align 8, !tbaa !3
  %22 = icmp ne ptr %21, null
  br i1 %22, label %23, label %30

23:                                               ; preds = %20
  %24 = load ptr, ptr %9, align 8, !tbaa !3
  %25 = load ptr, ptr %13, align 8, !tbaa !21
  %26 = load ptr, ptr %14, align 8, !tbaa !21
  %27 = call i32 @mbedtls_mpi_is_prime_ext(ptr noundef %24, i32 noundef 50, ptr noundef %25, ptr noundef %26)
  store i32 %27, ptr %15, align 4, !tbaa !8
  %28 = icmp ne i32 %27, 0
  br i1 %28, label %29, label %30

29:                                               ; preds = %23
  store i32 -16896, ptr %15, align 4, !tbaa !8
  br label %193

30:                                               ; preds = %23, %20, %7
  %31 = load ptr, ptr %13, align 8, !tbaa !21
  %32 = icmp ne ptr %31, null
  br i1 %32, label %33, label %43

33:                                               ; preds = %30
  %34 = load ptr, ptr %10, align 8, !tbaa !3
  %35 = icmp ne ptr %34, null
  br i1 %35, label %36, label %43

36:                                               ; preds = %33
  %37 = load ptr, ptr %10, align 8, !tbaa !3
  %38 = load ptr, ptr %13, align 8, !tbaa !21
  %39 = load ptr, ptr %14, align 8, !tbaa !21
  %40 = call i32 @mbedtls_mpi_is_prime_ext(ptr noundef %37, i32 noundef 50, ptr noundef %38, ptr noundef %39)
  store i32 %40, ptr %15, align 4, !tbaa !8
  %41 = icmp ne i32 %40, 0
  br i1 %41, label %42, label %43

42:                                               ; preds = %36
  store i32 -16896, ptr %15, align 4, !tbaa !8
  br label %193

43:                                               ; preds = %36, %33, %30
  %44 = load ptr, ptr %9, align 8, !tbaa !3
  %45 = icmp ne ptr %44, null
  br i1 %45, label %46, label %71

46:                                               ; preds = %43
  %47 = load ptr, ptr %10, align 8, !tbaa !3
  %48 = icmp ne ptr %47, null
  br i1 %48, label %49, label %71

49:                                               ; preds = %46
  %50 = load ptr, ptr %8, align 8, !tbaa !3
  %51 = icmp ne ptr %50, null
  br i1 %51, label %52, label %71

52:                                               ; preds = %49
  br label %53

53:                                               ; preds = %52
  %54 = load ptr, ptr %9, align 8, !tbaa !3
  %55 = load ptr, ptr %10, align 8, !tbaa !3
  %56 = call i32 @mbedtls_mpi_mul_mpi(ptr noundef %16, ptr noundef %54, ptr noundef %55)
  store i32 %56, ptr %15, align 4, !tbaa !8
  %57 = icmp ne i32 %56, 0
  br i1 %57, label %58, label %59

58:                                               ; preds = %53
  br label %193

59:                                               ; preds = %53
  br label %60

60:                                               ; preds = %59
  br label %61

61:                                               ; preds = %60
  %62 = load ptr, ptr %8, align 8, !tbaa !3
  %63 = call i32 @mbedtls_mpi_cmp_int(ptr noundef %62, i64 noundef 1)
  %64 = icmp sle i32 %63, 0
  br i1 %64, label %69, label %65

65:                                               ; preds = %61
  %66 = load ptr, ptr %8, align 8, !tbaa !3
  %67 = call i32 @mbedtls_mpi_cmp_mpi(ptr noundef %16, ptr noundef %66)
  %68 = icmp ne i32 %67, 0
  br i1 %68, label %69, label %70

69:                                               ; preds = %65, %61
  store i32 -16896, ptr %15, align 4, !tbaa !8
  br label %193

70:                                               ; preds = %65
  br label %71

71:                                               ; preds = %70, %49, %46, %43
  %72 = load ptr, ptr %8, align 8, !tbaa !3
  %73 = icmp ne ptr %72, null
  br i1 %73, label %74, label %100

74:                                               ; preds = %71
  %75 = load ptr, ptr %11, align 8, !tbaa !3
  %76 = icmp ne ptr %75, null
  br i1 %76, label %77, label %100

77:                                               ; preds = %74
  %78 = load ptr, ptr %12, align 8, !tbaa !3
  %79 = icmp ne ptr %78, null
  br i1 %79, label %80, label %100

80:                                               ; preds = %77
  %81 = load ptr, ptr %11, align 8, !tbaa !3
  %82 = call i32 @mbedtls_mpi_cmp_int(ptr noundef %81, i64 noundef 1)
  %83 = icmp sle i32 %82, 0
  br i1 %83, label %98, label %84

84:                                               ; preds = %80
  %85 = load ptr, ptr %12, align 8, !tbaa !3
  %86 = call i32 @mbedtls_mpi_cmp_int(ptr noundef %85, i64 noundef 1)
  %87 = icmp sle i32 %86, 0
  br i1 %87, label %98, label %88

88:                                               ; preds = %84
  %89 = load ptr, ptr %11, align 8, !tbaa !3
  %90 = load ptr, ptr %8, align 8, !tbaa !3
  %91 = call i32 @mbedtls_mpi_cmp_mpi(ptr noundef %89, ptr noundef %90)
  %92 = icmp sge i32 %91, 0
  br i1 %92, label %98, label %93

93:                                               ; preds = %88
  %94 = load ptr, ptr %12, align 8, !tbaa !3
  %95 = load ptr, ptr %8, align 8, !tbaa !3
  %96 = call i32 @mbedtls_mpi_cmp_mpi(ptr noundef %94, ptr noundef %95)
  %97 = icmp sge i32 %96, 0
  br i1 %97, label %98, label %99

98:                                               ; preds = %93, %88, %84, %80
  store i32 -16896, ptr %15, align 4, !tbaa !8
  br label %193

99:                                               ; preds = %93
  br label %100

100:                                              ; preds = %99, %77, %74, %71
  %101 = load ptr, ptr %9, align 8, !tbaa !3
  %102 = icmp ne ptr %101, null
  br i1 %102, label %103, label %192

103:                                              ; preds = %100
  %104 = load ptr, ptr %10, align 8, !tbaa !3
  %105 = icmp ne ptr %104, null
  br i1 %105, label %106, label %192

106:                                              ; preds = %103
  %107 = load ptr, ptr %11, align 8, !tbaa !3
  %108 = icmp ne ptr %107, null
  br i1 %108, label %109, label %192

109:                                              ; preds = %106
  %110 = load ptr, ptr %12, align 8, !tbaa !3
  %111 = icmp ne ptr %110, null
  br i1 %111, label %112, label %192

112:                                              ; preds = %109
  %113 = load ptr, ptr %9, align 8, !tbaa !3
  %114 = call i32 @mbedtls_mpi_cmp_int(ptr noundef %113, i64 noundef 1)
  %115 = icmp sle i32 %114, 0
  br i1 %115, label %120, label %116

116:                                              ; preds = %112
  %117 = load ptr, ptr %10, align 8, !tbaa !3
  %118 = call i32 @mbedtls_mpi_cmp_int(ptr noundef %117, i64 noundef 1)
  %119 = icmp sle i32 %118, 0
  br i1 %119, label %120, label %121

120:                                              ; preds = %116, %112
  store i32 -16896, ptr %15, align 4, !tbaa !8
  br label %193

121:                                              ; preds = %116
  br label %122

122:                                              ; preds = %121
  %123 = load ptr, ptr %11, align 8, !tbaa !3
  %124 = load ptr, ptr %12, align 8, !tbaa !3
  %125 = call i32 @mbedtls_mpi_mul_mpi(ptr noundef %16, ptr noundef %123, ptr noundef %124)
  store i32 %125, ptr %15, align 4, !tbaa !8
  %126 = icmp ne i32 %125, 0
  br i1 %126, label %127, label %128

127:                                              ; preds = %122
  br label %193

128:                                              ; preds = %122
  br label %129

129:                                              ; preds = %128
  br label %130

130:                                              ; preds = %129
  br label %131

131:                                              ; preds = %130
  %132 = call i32 @mbedtls_mpi_sub_int(ptr noundef %16, ptr noundef %16, i64 noundef 1)
  store i32 %132, ptr %15, align 4, !tbaa !8
  %133 = icmp ne i32 %132, 0
  br i1 %133, label %134, label %135

134:                                              ; preds = %131
  br label %193

135:                                              ; preds = %131
  br label %136

136:                                              ; preds = %135
  br label %137

137:                                              ; preds = %136
  br label %138

138:                                              ; preds = %137
  %139 = load ptr, ptr %9, align 8, !tbaa !3
  %140 = call i32 @mbedtls_mpi_sub_int(ptr noundef %17, ptr noundef %139, i64 noundef 1)
  store i32 %140, ptr %15, align 4, !tbaa !8
  %141 = icmp ne i32 %140, 0
  br i1 %141, label %142, label %143

142:                                              ; preds = %138
  br label %193

143:                                              ; preds = %138
  br label %144

144:                                              ; preds = %143
  br label %145

145:                                              ; preds = %144
  br label %146

146:                                              ; preds = %145
  %147 = call i32 @mbedtls_mpi_mod_mpi(ptr noundef %16, ptr noundef %16, ptr noundef %17)
  store i32 %147, ptr %15, align 4, !tbaa !8
  %148 = icmp ne i32 %147, 0
  br i1 %148, label %149, label %150

149:                                              ; preds = %146
  br label %193

150:                                              ; preds = %146
  br label %151

151:                                              ; preds = %150
  br label %152

152:                                              ; preds = %151
  %153 = call i32 @mbedtls_mpi_cmp_int(ptr noundef %16, i64 noundef 0)
  %154 = icmp ne i32 %153, 0
  br i1 %154, label %155, label %156

155:                                              ; preds = %152
  store i32 -16896, ptr %15, align 4, !tbaa !8
  br label %193

156:                                              ; preds = %152
  br label %157

157:                                              ; preds = %156
  %158 = load ptr, ptr %11, align 8, !tbaa !3
  %159 = load ptr, ptr %12, align 8, !tbaa !3
  %160 = call i32 @mbedtls_mpi_mul_mpi(ptr noundef %16, ptr noundef %158, ptr noundef %159)
  store i32 %160, ptr %15, align 4, !tbaa !8
  %161 = icmp ne i32 %160, 0
  br i1 %161, label %162, label %163

162:                                              ; preds = %157
  br label %193

163:                                              ; preds = %157
  br label %164

164:                                              ; preds = %163
  br label %165

165:                                              ; preds = %164
  br label %166

166:                                              ; preds = %165
  %167 = call i32 @mbedtls_mpi_sub_int(ptr noundef %16, ptr noundef %16, i64 noundef 1)
  store i32 %167, ptr %15, align 4, !tbaa !8
  %168 = icmp ne i32 %167, 0
  br i1 %168, label %169, label %170

169:                                              ; preds = %166
  br label %193

170:                                              ; preds = %166
  br label %171

171:                                              ; preds = %170
  br label %172

172:                                              ; preds = %171
  br label %173

173:                                              ; preds = %172
  %174 = load ptr, ptr %10, align 8, !tbaa !3
  %175 = call i32 @mbedtls_mpi_sub_int(ptr noundef %17, ptr noundef %174, i64 noundef 1)
  store i32 %175, ptr %15, align 4, !tbaa !8
  %176 = icmp ne i32 %175, 0
  br i1 %176, label %177, label %178

177:                                              ; preds = %173
  br label %193

178:                                              ; preds = %173
  br label %179

179:                                              ; preds = %178
  br label %180

180:                                              ; preds = %179
  br label %181

181:                                              ; preds = %180
  %182 = call i32 @mbedtls_mpi_mod_mpi(ptr noundef %16, ptr noundef %16, ptr noundef %17)
  store i32 %182, ptr %15, align 4, !tbaa !8
  %183 = icmp ne i32 %182, 0
  br i1 %183, label %184, label %185

184:                                              ; preds = %181
  br label %193

185:                                              ; preds = %181
  br label %186

186:                                              ; preds = %185
  br label %187

187:                                              ; preds = %186
  %188 = call i32 @mbedtls_mpi_cmp_int(ptr noundef %16, i64 noundef 0)
  %189 = icmp ne i32 %188, 0
  br i1 %189, label %190, label %191

190:                                              ; preds = %187
  store i32 -16896, ptr %15, align 4, !tbaa !8
  br label %193

191:                                              ; preds = %187
  br label %192

192:                                              ; preds = %191, %109, %106, %103, %100
  br label %193

193:                                              ; preds = %192, %190, %184, %177, %169, %162, %155, %149, %142, %134, %127, %120, %98, %69, %58, %42, %29
  call void @mbedtls_mpi_free(ptr noundef %16)
  call void @mbedtls_mpi_free(ptr noundef %17)
  %194 = load i32, ptr %15, align 4, !tbaa !8
  %195 = icmp ne i32 %194, 0
  br i1 %195, label %196, label %202

196:                                              ; preds = %193
  %197 = load i32, ptr %15, align 4, !tbaa !8
  %198 = icmp ne i32 %197, -16896
  br i1 %198, label %199, label %202

199:                                              ; preds = %196
  %200 = load i32, ptr %15, align 4, !tbaa !8
  %201 = add nsw i32 %200, -16896
  store i32 %201, ptr %15, align 4, !tbaa !8
  br label %202

202:                                              ; preds = %199, %196, %193
  %203 = load i32, ptr %15, align 4, !tbaa !8
  call void @llvm.lifetime.end.p0(i64 16, ptr %17) #4
  call void @llvm.lifetime.end.p0(i64 16, ptr %16) #4
  call void @llvm.lifetime.end.p0(i64 4, ptr %15) #4
  ret i32 %203
}