; Function Attrs: nounwind uwtable
define hidden range(i32 -2147483648, 2147466752) i32 @mbedtls_rsa_validate_params(ptr noundef %0, ptr noundef %1, ptr noundef %2, ptr noundef %3, ptr noundef %4, ptr noundef %5, ptr noundef %6) local_unnamed_addr #0 {
  %8 = alloca %struct.mbedtls_mpi, align 8
  %9 = alloca %struct.mbedtls_mpi, align 8
  call void @llvm.lifetime.start.p0(i64 16, ptr nonnull %8) #3
  call void @llvm.lifetime.start.p0(i64 16, ptr nonnull %9) #3
  call void @mbedtls_mpi_init(ptr noundef nonnull %8) #3
  call void @mbedtls_mpi_init(ptr noundef nonnull %9) #3
  %10 = icmp ne ptr %5, null
  %11 = icmp ne ptr %1, null
  %or.cond = and i1 %11, %10
  br i1 %or.cond, label %12, label %14

12:                                               ; preds = %7
  %13 = call i32 @mbedtls_mpi_is_prime_ext(ptr noundef nonnull %1, i32 noundef 50, ptr noundef nonnull %5, ptr noundef %6) #3
  %.not = icmp eq i32 %13, 0
  br i1 %.not, label %14, label %.thread

14:                                               ; preds = %12, %7
  %15 = icmp ne ptr %2, null
  %or.cond3 = and i1 %15, %10
  br i1 %or.cond3, label %16, label %18

16:                                               ; preds = %14
  %17 = call i32 @mbedtls_mpi_is_prime_ext(ptr noundef nonnull %2, i32 noundef 50, ptr noundef nonnull %5, ptr noundef %6) #3
  %.not87 = icmp eq i32 %17, 0
  br i1 %.not87, label %18, label %.thread

18:                                               ; preds = %16, %14
  %or.cond5 = and i1 %11, %15
  %19 = icmp ne ptr %0, null
  %or.cond7 = and i1 %19, %or.cond5
  br i1 %or.cond7, label %20, label %27

20:                                               ; preds = %18
  %21 = call i32 @mbedtls_mpi_mul_mpi(ptr noundef nonnull %8, ptr noundef nonnull %1, ptr noundef nonnull %2) #3
  %.not88 = icmp eq i32 %21, 0
  br i1 %.not88, label %22, label %69

22:                                               ; preds = %20
  %23 = call i32 @mbedtls_mpi_cmp_int(ptr noundef nonnull %0, i64 noundef 1) #3
  %24 = icmp slt i32 %23, 1
  br i1 %24, label %.thread, label %25

25:                                               ; preds = %22
  %26 = call i32 @mbedtls_mpi_cmp_mpi(ptr noundef nonnull %8, ptr noundef nonnull %0) #3
  %.not89 = icmp eq i32 %26, 0
  br i1 %.not89, label %27, label %.thread

27:                                               ; preds = %25, %18
  %28 = icmp ne ptr %3, null
  %or.cond9 = and i1 %19, %28
  %29 = icmp ne ptr %4, null
  %or.cond11 = and i1 %or.cond9, %29
  br i1 %or.cond11, label %30, label %42

30:                                               ; preds = %27
  %31 = call i32 @mbedtls_mpi_cmp_int(ptr noundef nonnull %3, i64 noundef 1) #3
  %32 = icmp slt i32 %31, 1
  br i1 %32, label %.thread, label %33

33:                                               ; preds = %30
  %34 = call i32 @mbedtls_mpi_cmp_int(ptr noundef nonnull %4, i64 noundef 1) #3
  %35 = icmp slt i32 %34, 1
  br i1 %35, label %.thread, label %36

36:                                               ; preds = %33
  %37 = call i32 @mbedtls_mpi_cmp_mpi(ptr noundef nonnull %3, ptr noundef nonnull %0) #3
  %38 = icmp sgt i32 %37, -1
  br i1 %38, label %.thread, label %39

39:                                               ; preds = %36
  %40 = call i32 @mbedtls_mpi_cmp_mpi(ptr noundef nonnull %4, ptr noundef nonnull %0) #3
  %41 = icmp sgt i32 %40, -1
  br i1 %41, label %.thread, label %42

42:                                               ; preds = %39, %27
  %or.cond15 = and i1 %or.cond5, %28
  %or.cond17 = and i1 %or.cond15, %29
  br i1 %or.cond17, label %43, label %.thread

43:                                               ; preds = %42
  %44 = call i32 @mbedtls_mpi_cmp_int(ptr noundef nonnull %1, i64 noundef 1) #3
  %45 = icmp slt i32 %44, 1
  br i1 %45, label %.thread, label %46

46:                                               ; preds = %43
  %47 = call i32 @mbedtls_mpi_cmp_int(ptr noundef nonnull %2, i64 noundef 1) #3
  %48 = icmp slt i32 %47, 1
  br i1 %48, label %.thread, label %49

49:                                               ; preds = %46
  %50 = call i32 @mbedtls_mpi_mul_mpi(ptr noundef nonnull %8, ptr noundef nonnull %3, ptr noundef nonnull %4) #3
  %.not90 = icmp eq i32 %50, 0
  br i1 %.not90, label %51, label %69

51:                                               ; preds = %49
  %52 = call i32 @mbedtls_mpi_sub_int(ptr noundef nonnull %8, ptr noundef nonnull %8, i64 noundef 1) #3
  %.not91 = icmp eq i32 %52, 0
  br i1 %.not91, label %53, label %69

53:                                               ; preds = %51
  %54 = call i32 @mbedtls_mpi_sub_int(ptr noundef nonnull %9, ptr noundef nonnull %1, i64 noundef 1) #3
  %.not92 = icmp eq i32 %54, 0
  br i1 %.not92, label %55, label %69

55:                                               ; preds = %53
  %56 = call i32 @mbedtls_mpi_mod_mpi(ptr noundef nonnull %8, ptr noundef nonnull %8, ptr noundef nonnull %9) #3
  %.not93 = icmp eq i32 %56, 0
  br i1 %.not93, label %57, label %69

57:                                               ; preds = %55
  %58 = call i32 @mbedtls_mpi_cmp_int(ptr noundef nonnull %8, i64 noundef 0) #3
  %.not94 = icmp eq i32 %58, 0
  br i1 %.not94, label %59, label %.thread

59:                                               ; preds = %57
  %60 = call i32 @mbedtls_mpi_mul_mpi(ptr noundef nonnull %8, ptr noundef nonnull %3, ptr noundef nonnull %4) #3
  %.not95 = icmp eq i32 %60, 0
  br i1 %.not95, label %61, label %69

61:                                               ; preds = %59
  %62 = call i32 @mbedtls_mpi_sub_int(ptr noundef nonnull %8, ptr noundef nonnull %8, i64 noundef 1) #3
  %.not96 = icmp eq i32 %62, 0
  br i1 %.not96, label %63, label %69

63:                                               ; preds = %61
  %64 = call i32 @mbedtls_mpi_sub_int(ptr noundef nonnull %9, ptr noundef nonnull %2, i64 noundef 1) #3
  %.not97 = icmp eq i32 %64, 0
  br i1 %.not97, label %65, label %69

65:                                               ; preds = %63
  %66 = call i32 @mbedtls_mpi_mod_mpi(ptr noundef nonnull %8, ptr noundef nonnull %8, ptr noundef nonnull %9) #3
  %.not98 = icmp eq i32 %66, 0
  br i1 %.not98, label %67, label %69

67:                                               ; preds = %65
  %68 = call i32 @mbedtls_mpi_cmp_int(ptr noundef nonnull %8, i64 noundef 0) #3
  %.not99 = icmp eq i32 %68, 0
  %spec.select = select i1 %.not99, i32 0, i32 -16896
  br label %.thread

.thread:                                          ; preds = %67, %42, %12, %16, %25, %22, %39, %36, %33, %30, %46, %43, %57
  %.1.ph = phi i32 [ -16896, %57 ], [ -16896, %43 ], [ -16896, %46 ], [ -16896, %30 ], [ -16896, %33 ], [ -16896, %36 ], [ -16896, %39 ], [ -16896, %22 ], [ -16896, %25 ], [ -16896, %16 ], [ -16896, %12 ], [ 0, %42 ], [ %spec.select, %67 ]
  call void @mbedtls_mpi_free(ptr noundef nonnull %8) #3
  call void @mbedtls_mpi_free(ptr noundef nonnull %9) #3
  br label %71

69:                                               ; preds = %65, %63, %61, %59, %55, %53, %51, %49, %20
  %.1 = phi i32 [ %21, %20 ], [ %50, %49 ], [ %52, %51 ], [ %54, %53 ], [ %56, %55 ], [ %60, %59 ], [ %62, %61 ], [ %64, %63 ], [ %66, %65 ]
  call void @mbedtls_mpi_free(ptr noundef nonnull %8) #3
  call void @mbedtls_mpi_free(ptr noundef nonnull %9) #3
  %cond = icmp eq i32 %.1, -16896
  %70 = add nsw i32 %.1, -16896
  %spec.select101 = select i1 %cond, i32 -16896, i32 %70
  br label %71

71:                                               ; preds = %69, %.thread
  %.4 = phi i32 [ %.1.ph, %.thread ], [ %spec.select101, %69 ]
  call void @llvm.lifetime.end.p0(i64 16, ptr nonnull %9) #3
  call void @llvm.lifetime.end.p0(i64 16, ptr nonnull %8) #3
  ret i32 %.4
}